; Function Attrs: mustprogress nofree norecurse nosync nounwind willreturn memory(argmem: readwrite) uwtable
define void @_ZN9grpc_core13StringMatcherC2ESt10unique_ptrIN3re23RE2ESt14default_deleteIS3_EE(ptr noundef nonnull align 8 dereferenceable(49) initializes((0, 4)) %0, ptr noundef captures(none) %1) unnamed_addr #8 align 2 personality ptr @__gxx_personality_v0 {
  store i32 3, ptr %0, align 8, !tbaa !37
  %3 = getelementptr inbounds nuw i8, ptr %0, i64 8
  %4 = getelementptr inbounds nuw i8, ptr %0, i64 24
  store ptr %4, ptr %3, align 8, !tbaa !3
  %5 = getelementptr inbounds nuw i8, ptr %0, i64 16
  store i64 0, ptr %5, align 8, !tbaa !14
  store i8 0, ptr %4, align 8, !tbaa !13
  %6 = getelementptr inbounds nuw i8, ptr %0, i64 40
  %7 = load i64, ptr %1, align 8, !tbaa !18
  store i64 %7, ptr %6, align 8, !tbaa !18
  store ptr null, ptr %1, align 8, !tbaa !18
  %8 = getelementptr inbounds nuw i8, ptr %0, i64 48
  store i8 1, ptr %8, align 8, !tbaa !47
  ret void
}